MPLINK 5.08, LINKER
Linker Map File - Created Fri Oct 16 17:37:47 2015

                                 Section Info
                  Section       Type    Address   Location Size(Bytes)
                ---------  ---------  ---------  ---------  ---------
                 RES_VECT       code   0x000000    program   0x000002
                   .cinit    romdata   0x000001    program   0x000004
                MAIN_PROG       code   0x000003    program   0x00027a
.config_2007_BUILD/PICKIT3/DEBUG/DATALOGGER.O       code   0x002007    program   0x000002
                variables      udata   0x000020       data   0x00000a



                              Program Memory Usage 
                               Start         End      
                           ---------   ---------      
                            0x000000    0x00013f      
                            0x002007    0x002007      
            321 out of 4359 program addresses used, program memory utilization is 7%



                              Symbols - Sorted by Name
                     Name    Address   Location    Storage File                     
                ---------  ---------  ---------  --------- ---------                
                    SETUP   0x000003    program     static C:\Users\The_Dark_Flame\OneDrive\Documents\213562404\PIC projects\P5.0.X\DataLogger.asm
                    START   0x000074    program     static C:\Users\The_Dark_Flame\OneDrive\Documents\213562404\PIC projects\P5.0.X\DataLogger.asm
                 TESTCODE   0x000072    program     static C:\Users\The_Dark_Flame\OneDrive\Documents\213562404\PIC projects\P5.0.X\DataLogger.asm
          _MAIN_PROG_0010   0x000013    program     static C:\Users\The_Dark_Flame\OneDrive\Documents\213562404\PIC projects\P5.0.X\DataLogger.asm
          _MAIN_PROG_0012   0x000015    program     static C:\Users\The_Dark_Flame\OneDrive\Documents\213562404\PIC projects\P5.0.X\DataLogger.asm
          _MAIN_PROG_0018   0x00001b    program     static C:\Users\The_Dark_Flame\OneDrive\Documents\213562404\PIC projects\P5.0.X\DataLogger.asm
          _MAIN_PROG_001A   0x00001d    program     static C:\Users\The_Dark_Flame\OneDrive\Documents\213562404\PIC projects\P5.0.X\DataLogger.asm
          _MAIN_PROG_0020   0x000023    program     static C:\Users\The_Dark_Flame\OneDrive\Documents\213562404\PIC projects\P5.0.X\DataLogger.asm
          _MAIN_PROG_0022   0x000025    program     static C:\Users\The_Dark_Flame\OneDrive\Documents\213562404\PIC projects\P5.0.X\DataLogger.asm
          _MAIN_PROG_0028   0x00002b    program     static C:\Users\The_Dark_Flame\OneDrive\Documents\213562404\PIC projects\P5.0.X\DataLogger.asm
          _MAIN_PROG_002A   0x00002d    program     static C:\Users\The_Dark_Flame\OneDrive\Documents\213562404\PIC projects\P5.0.X\DataLogger.asm
          _MAIN_PROG_0030   0x000033    program     static C:\Users\The_Dark_Flame\OneDrive\Documents\213562404\PIC projects\P5.0.X\DataLogger.asm
          _MAIN_PROG_0032   0x000035    program     static C:\Users\The_Dark_Flame\OneDrive\Documents\213562404\PIC projects\P5.0.X\DataLogger.asm
          _MAIN_PROG_0049   0x00004c    program     static C:\Users\The_Dark_Flame\OneDrive\Documents\213562404\PIC projects\P5.0.X\DataLogger.asm
          _MAIN_PROG_004B   0x00004e    program     static C:\Users\The_Dark_Flame\OneDrive\Documents\213562404\PIC projects\P5.0.X\DataLogger.asm
          _MAIN_PROG_0051   0x000054    program     static C:\Users\The_Dark_Flame\OneDrive\Documents\213562404\PIC projects\P5.0.X\DataLogger.asm
          _MAIN_PROG_0053   0x000056    program     static C:\Users\The_Dark_Flame\OneDrive\Documents\213562404\PIC projects\P5.0.X\DataLogger.asm
          _MAIN_PROG_0060   0x000063    program     static C:\Users\The_Dark_Flame\OneDrive\Documents\213562404\PIC projects\P5.0.X\DataLogger.asm
          _MAIN_PROG_0062   0x000065    program     static C:\Users\The_Dark_Flame\OneDrive\Documents\213562404\PIC projects\P5.0.X\DataLogger.asm
          _MAIN_PROG_0068   0x00006b    program     static C:\Users\The_Dark_Flame\OneDrive\Documents\213562404\PIC projects\P5.0.X\DataLogger.asm
          _MAIN_PROG_006A   0x00006d    program     static C:\Users\The_Dark_Flame\OneDrive\Documents\213562404\PIC projects\P5.0.X\DataLogger.asm
          _MAIN_PROG_008E   0x000091    program     static C:\Users\The_Dark_Flame\OneDrive\Documents\213562404\PIC projects\P5.0.X\DataLogger.asm
          _MAIN_PROG_00A7   0x0000aa    program     static C:\Users\The_Dark_Flame\OneDrive\Documents\213562404\PIC projects\P5.0.X\DataLogger.asm
          _MAIN_PROG_00C0   0x0000c3    program     static C:\Users\The_Dark_Flame\OneDrive\Documents\213562404\PIC projects\P5.0.X\DataLogger.asm
          _MAIN_PROG_00D9   0x0000dc    program     static C:\Users\The_Dark_Flame\OneDrive\Documents\213562404\PIC projects\P5.0.X\DataLogger.asm
          _MAIN_PROG_00EF   0x0000f2    program     static C:\Users\The_Dark_Flame\OneDrive\Documents\213562404\PIC projects\P5.0.X\DataLogger.asm
          _MAIN_PROG_0105   0x000108    program     static C:\Users\The_Dark_Flame\OneDrive\Documents\213562404\PIC projects\P5.0.X\DataLogger.asm
          _MAIN_PROG_0117   0x00011a    program     static C:\Users\The_Dark_Flame\OneDrive\Documents\213562404\PIC projects\P5.0.X\DataLogger.asm
          _MAIN_PROG_012E   0x000131    program     static C:\Users\The_Dark_Flame\OneDrive\Documents\213562404\PIC projects\P5.0.X\DataLogger.asm
             eeprom.write   0x000075    program     static C:\Users\The_Dark_Flame\OneDrive\Documents\213562404\PIC projects\P5.0.X\DataLogger.asm
                lcd.write   0x000124    program     static C:\Users\The_Dark_Flame\OneDrive\Documents\213562404\PIC projects\P5.0.X\DataLogger.asm
               sampledata   0x00010e    program     static C:\Users\The_Dark_Flame\OneDrive\Documents\213562404\PIC projects\P5.0.X\DataLogger.asm
                CUR_EEADR   0x000020       data     static C:\Users\The_Dark_Flame\OneDrive\Documents\213562404\PIC projects\P5.0.X\DataLogger.asm
             CUR_HUMIDITY   0x000022       data     static C:\Users\The_Dark_Flame\OneDrive\Documents\213562404\PIC projects\P5.0.X\DataLogger.asm
          CUR_TEMPERATURE   0x000021       data     static C:\Users\The_Dark_Flame\OneDrive\Documents\213562404\PIC projects\P5.0.X\DataLogger.asm
               CUR_TIME_H   0x000024       data     static C:\Users\The_Dark_Flame\OneDrive\Documents\213562404\PIC projects\P5.0.X\DataLogger.asm
               CUR_TIME_L   0x000023       data     static C:\Users\The_Dark_Flame\OneDrive\Documents\213562404\PIC projects\P5.0.X\DataLogger.asm
                       D1   0x000028       data     static C:\Users\The_Dark_Flame\OneDrive\Documents\213562404\PIC projects\P5.0.X\DataLogger.asm
                       D2   0x000029       data     static C:\Users\The_Dark_Flame\OneDrive\Documents\213562404\PIC projects\P5.0.X\DataLogger.asm
               LCD_BUFFER   0x000027       data     static C:\Users\The_Dark_Flame\OneDrive\Documents\213562404\PIC projects\P5.0.X\DataLogger.asm
                LOG_COUNT   0x000025       data     static C:\Users\The_Dark_Flame\OneDrive\Documents\213562404\PIC projects\P5.0.X\DataLogger.asm
                    STATE   0x000026       data     static C:\Users\The_Dark_Flame\OneDrive\Documents\213562404\PIC projects\P5.0.X\DataLogger.asm



                              Symbols - Sorted by Address
                     Name    Address   Location    Storage File                     
                ---------  ---------  ---------  --------- ---------                
                    SETUP   0x000003    program     static C:\Users\The_Dark_Flame\OneDrive\Documents\213562404\PIC projects\P5.0.X\DataLogger.asm
          _MAIN_PROG_0010   0x000013    program     static C:\Users\The_Dark_Flame\OneDrive\Documents\213562404\PIC projects\P5.0.X\DataLogger.asm
          _MAIN_PROG_0012   0x000015    program     static C:\Users\The_Dark_Flame\OneDrive\Documents\213562404\PIC projects\P5.0.X\DataLogger.asm
          _MAIN_PROG_0018   0x00001b    program     static C:\Users\The_Dark_Flame\OneDrive\Documents\213562404\PIC projects\P5.0.X\DataLogger.asm
          _MAIN_PROG_001A   0x00001d    program     static C:\Users\The_Dark_Flame\OneDrive\Documents\213562404\PIC projects\P5.0.X\DataLogger.asm
          _MAIN_PROG_0020   0x000023    program     static C:\Users\The_Dark_Flame\OneDrive\Documents\213562404\PIC projects\P5.0.X\DataLogger.asm
          _MAIN_PROG_0022   0x000025    program     static C:\Users\The_Dark_Flame\OneDrive\Documents\213562404\PIC projects\P5.0.X\DataLogger.asm
          _MAIN_PROG_0028   0x00002b    program     static C:\Users\The_Dark_Flame\OneDrive\Documents\213562404\PIC projects\P5.0.X\DataLogger.asm
          _MAIN_PROG_002A   0x00002d    program     static C:\Users\The_Dark_Flame\OneDrive\Documents\213562404\PIC projects\P5.0.X\DataLogger.asm
          _MAIN_PROG_0030   0x000033    program     static C:\Users\The_Dark_Flame\OneDrive\Documents\213562404\PIC projects\P5.0.X\DataLogger.asm
          _MAIN_PROG_0032   0x000035    program     static C:\Users\The_Dark_Flame\OneDrive\Documents\213562404\PIC projects\P5.0.X\DataLogger.asm
          _MAIN_PROG_0049   0x00004c    program     static C:\Users\The_Dark_Flame\OneDrive\Documents\213562404\PIC projects\P5.0.X\DataLogger.asm
          _MAIN_PROG_004B   0x00004e    program     static C:\Users\The_Dark_Flame\OneDrive\Documents\213562404\PIC projects\P5.0.X\DataLogger.asm
          _MAIN_PROG_0051   0x000054    program     static C:\Users\The_Dark_Flame\OneDrive\Documents\213562404\PIC projects\P5.0.X\DataLogger.asm
          _MAIN_PROG_0053   0x000056    program     static C:\Users\The_Dark_Flame\OneDrive\Documents\213562404\PIC projects\P5.0.X\DataLogger.asm
          _MAIN_PROG_0060   0x000063    program     static C:\Users\The_Dark_Flame\OneDrive\Documents\213562404\PIC projects\P5.0.X\DataLogger.asm
          _MAIN_PROG_0062   0x000065    program     static C:\Users\The_Dark_Flame\OneDrive\Documents\213562404\PIC projects\P5.0.X\DataLogger.asm
          _MAIN_PROG_0068   0x00006b    program     static C:\Users\The_Dark_Flame\OneDrive\Documents\213562404\PIC projects\P5.0.X\DataLogger.asm
          _MAIN_PROG_006A   0x00006d    program     static C:\Users\The_Dark_Flame\OneDrive\Documents\213562404\PIC projects\P5.0.X\DataLogger.asm
                 TESTCODE   0x000072    program     static C:\Users\The_Dark_Flame\OneDrive\Documents\213562404\PIC projects\P5.0.X\DataLogger.asm
                    START   0x000074    program     static C:\Users\The_Dark_Flame\OneDrive\Documents\213562404\PIC projects\P5.0.X\DataLogger.asm
             eeprom.write   0x000075    program     static C:\Users\The_Dark_Flame\OneDrive\Documents\213562404\PIC projects\P5.0.X\DataLogger.asm
          _MAIN_PROG_008E   0x000091    program     static C:\Users\The_Dark_Flame\OneDrive\Documents\213562404\PIC projects\P5.0.X\DataLogger.asm
          _MAIN_PROG_00A7   0x0000aa    program     static C:\Users\The_Dark_Flame\OneDrive\Documents\213562404\PIC projects\P5.0.X\DataLogger.asm
          _MAIN_PROG_00C0   0x0000c3    program     static C:\Users\The_Dark_Flame\OneDrive\Documents\213562404\PIC projects\P5.0.X\DataLogger.asm
          _MAIN_PROG_00D9   0x0000dc    program     static C:\Users\The_Dark_Flame\OneDrive\Documents\213562404\PIC projects\P5.0.X\DataLogger.asm
          _MAIN_PROG_00EF   0x0000f2    program     static C:\Users\The_Dark_Flame\OneDrive\Documents\213562404\PIC projects\P5.0.X\DataLogger.asm
          _MAIN_PROG_0105   0x000108    program     static C:\Users\The_Dark_Flame\OneDrive\Documents\213562404\PIC projects\P5.0.X\DataLogger.asm
               sampledata   0x00010e    program     static C:\Users\The_Dark_Flame\OneDrive\Documents\213562404\PIC projects\P5.0.X\DataLogger.asm
          _MAIN_PROG_0117   0x00011a    program     static C:\Users\The_Dark_Flame\OneDrive\Documents\213562404\PIC projects\P5.0.X\DataLogger.asm
                lcd.write   0x000124    program     static C:\Users\The_Dark_Flame\OneDrive\Documents\213562404\PIC projects\P5.0.X\DataLogger.asm
          _MAIN_PROG_012E   0x000131    program     static C:\Users\The_Dark_Flame\OneDrive\Documents\213562404\PIC projects\P5.0.X\DataLogger.asm
                CUR_EEADR   0x000020       data     static C:\Users\The_Dark_Flame\OneDrive\Documents\213562404\PIC projects\P5.0.X\DataLogger.asm
          CUR_TEMPERATURE   0x000021       data     static C:\Users\The_Dark_Flame\OneDrive\Documents\213562404\PIC projects\P5.0.X\DataLogger.asm
             CUR_HUMIDITY   0x000022       data     static C:\Users\The_Dark_Flame\OneDrive\Documents\213562404\PIC projects\P5.0.X\DataLogger.asm
               CUR_TIME_L   0x000023       data     static C:\Users\The_Dark_Flame\OneDrive\Documents\213562404\PIC projects\P5.0.X\DataLogger.asm
               CUR_TIME_H   0x000024       data     static C:\Users\The_Dark_Flame\OneDrive\Documents\213562404\PIC projects\P5.0.X\DataLogger.asm
                LOG_COUNT   0x000025       data     static C:\Users\The_Dark_Flame\OneDrive\Documents\213562404\PIC projects\P5.0.X\DataLogger.asm
                    STATE   0x000026       data     static C:\Users\The_Dark_Flame\OneDrive\Documents\213562404\PIC projects\P5.0.X\DataLogger.asm
               LCD_BUFFER   0x000027       data     static C:\Users\The_Dark_Flame\OneDrive\Documents\213562404\PIC projects\P5.0.X\DataLogger.asm
                       D1   0x000028       data     static C:\Users\The_Dark_Flame\OneDrive\Documents\213562404\PIC projects\P5.0.X\DataLogger.asm
                       D2   0x000029       data     static C:\Users\The_Dark_Flame\OneDrive\Documents\213562404\PIC projects\P5.0.X\DataLogger.asm


